target datalayout = "e-m:e-p270:32:32-p271:32:32-p272:64:64-i64:64-i128:128-f80:128-n8:16:32:64-S128"
target triple = "x86_64-pc-linux-gnu"

%struct._php_random_status_state_mt19937 = type { i32, i32, [624 x i32] }
%struct._php_random_result = type { i64, i64 }

; Function Attrs: nounwind uwtable
define internal { i64, i64 } @generate(ptr noundef %0) #2 {
  %2 = alloca %struct._php_random_result, align 8
  %3 = alloca ptr, align 8
  %4 = alloca ptr, align 8
  %5 = alloca i32, align 4
  store ptr %0, ptr %3, align 8, !tbaa !16
  call void @llvm.lifetime.start.p0(i64 8, ptr %4) #10
  %6 = load ptr, ptr %3, align 8, !tbaa !16
  store ptr %6, ptr %4, align 8, !tbaa !4
  call void @llvm.lifetime.start.p0(i64 4, ptr %5) #10
  %7 = load ptr, ptr %4, align 8, !tbaa !4
  %8 = getelementptr inbounds nuw %struct._php_random_status_state_mt19937, ptr %7, i32 0, i32 0
  %9 = load i32, ptr %8, align 4, !tbaa !11
  %10 = icmp uge i32 %9, 624
  br i1 %10, label %11, label %13

11:                                               ; preds = %1
  %12 = load ptr, ptr %4, align 8, !tbaa !4
  call void @mt19937_reload(ptr noundef %12)
  br label %13

13:                                               ; preds = %11, %1
  %14 = load ptr, ptr %4, align 8, !tbaa !4
  %15 = getelementptr inbounds nuw %struct._php_random_status_state_mt19937, ptr %14, i32 0, i32 2
  %16 = load ptr, ptr %4, align 8, !tbaa !4
  %17 = getelementptr inbounds nuw %struct._php_random_status_state_mt19937, ptr %16, i32 0, i32 0
  %18 = load i32, ptr %17, align 4, !tbaa !11
  %19 = add i32 %18, 1
  store i32 %19, ptr %17, align 4, !tbaa !11
  %20 = zext i32 %18 to i64
  %21 = getelementptr inbounds nuw [624 x i32], ptr %15, i64 0, i64 %20
  %22 = load i32, ptr %21, align 4, !tbaa !9
  store i32 %22, ptr %5, align 4, !tbaa !9
  %23 = load i32, ptr %5, align 4, !tbaa !9
  %24 = lshr i32 %23, 11
  %25 = load i32, ptr %5, align 4, !tbaa !9
  %26 = xor i32 %25, %24
  store i32 %26, ptr %5, align 4, !tbaa !9
  %27 = load i32, ptr %5, align 4, !tbaa !9
  %28 = shl i32 %27, 7
  %29 = and i32 %28, -1658038656
  %30 = load i32, ptr %5, align 4, !tbaa !9
  %31 = xor i32 %30, %29
  store i32 %31, ptr %5, align 4, !tbaa !9
  %32 = load i32, ptr %5, align 4, !tbaa !9
  %33 = shl i32 %32, 15
  %34 = and i32 %33, -272236544
  %35 = load i32, ptr %5, align 4, !tbaa !9
  %36 = xor i32 %35, %34
  store i32 %36, ptr %5, align 4, !tbaa !9
  %37 = getelementptr inbounds nuw %struct._php_random_result, ptr %2, i32 0, i32 0
  %38 = load i32, ptr %5, align 4, !tbaa !9
  %39 = load i32, ptr %5, align 4, !tbaa !9
  %40 = lshr i32 %39, 18
  %41 = xor i32 %38, %40
  %42 = zext i32 %41 to i64
  store i64 %42, ptr %37, align 8, !tbaa !17
  %43 = getelementptr inbounds nuw %struct._php_random_result, ptr %2, i32 0, i32 1
  store i64 4, ptr %43, align 8, !tbaa !20
  call void @llvm.lifetime.end.p0(i64 4, ptr %5) #10
  call void @llvm.lifetime.end.p0(i64 8, ptr %4) #10
  %44 = load { i64, i64 }, ptr %2, align 8
  ret { i64, i64 } %44
}