; Function Attrs: nofree norecurse nosync nounwind memory(argmem: readwrite) uwtable
define internal { i64, i64 } @generate(ptr noundef captures(none) %0) #2 {
  %2 = load i32, ptr %0, align 4, !tbaa !8
  %3 = icmp ugt i32 %2, 623
  br i1 %3, label %4, label %5

4:                                                ; preds = %1
  tail call fastcc void @mt19937_reload(ptr noundef nonnull %0)
  %.pre = load i32, ptr %0, align 4, !tbaa !8
  br label %5

5:                                                ; preds = %4, %1
  %6 = phi i32 [ %.pre, %4 ], [ %2, %1 ]
  %7 = getelementptr inbounds nuw i8, ptr %0, i64 8
  %8 = add i32 %6, 1
  store i32 %8, ptr %0, align 4, !tbaa !8
  %9 = zext i32 %6 to i64
  %10 = getelementptr inbounds nuw [624 x i32], ptr %7, i64 0, i64 %9
  %11 = load i32, ptr %10, align 4, !tbaa !4
  %12 = lshr i32 %11, 11
  %13 = xor i32 %12, %11
  %14 = shl i32 %13, 7
  %15 = and i32 %14, -1658038656
  %16 = xor i32 %15, %13
  %17 = shl i32 %16, 15
  %18 = and i32 %17, -272236544
  %19 = xor i32 %18, %16
  %20 = lshr i32 %19, 18
  %21 = xor i32 %20, %19
  %22 = zext i32 %21 to i64
  %.fca.0.insert = insertvalue { i64, i64 } poison, i64 %22, 0
  %.fca.1.insert = insertvalue { i64, i64 } %.fca.0.insert, i64 4, 1
  ret { i64, i64 } %.fca.1.insert
}